(lp0
Vyrashk
p1
aVMarionumber1
p2
aVnati22
p3
aVjamesls
p4
aVuserfog
p5
aVInternetDevels
p6
aVburrsutter
p7
aVbazzinotti
p8
aVpaulgibbs
p9
aVjacquestardie
p10
aVmarklrh
p11
aVphilschatz
p12
aVelsigh
p13
aVnocarryr
p14
aVTrott
p15
aVjamesmaila
p16
aVcenotaph
p17
aVJacobBarthelmeh
p18
aVkuko126
p19
aVdrXor
p20
aVjoebordes
p21
aVfiatjaf
p22
aVbunchopunch
p23
aVYoshikiShibata
p24
aVz-n
p25
aVrhiokim
p26
aVhepplerj
p27
aVcarodew
p28
aVsidharth87
p29
aVjeffless
p30
aVdavidjhulse
p31
aVwarlordjones
p32
aVComputerology
p33
aVhunterbrowning
p34
aVaabrahamowicz
p35
aVjosetupla
p36
aVfsphil
p37
aVexquest
p38
aVweiweiwitch
p39
aVchrisdavies
p40
aVdsimmons
p41
aVdavidtweinberger
p42
aVempayne
p43
aVtlgkccampbell
p44
aVeacooper
p45
aVjl4282
p46
aVbriantigerchow
p47
aVvictorsong
p48
aVmetasta
p49
aVcristiandouce
p50
aVebrill
p51
aVjjman505
p52
aVRickBacci
p53
aVmoxie0
p54
aVktuite
p55
aVstretta
p56
aVcf-ci-push-pull
p57
aVVolatileDream
p58
aViloveitaly
p59
aVgwicke
p60
aVFEPanalysis
p61
aVskyhawk86305
p62
aVkylephillips
p63
aVmrbubba
p64
aVxacobecm
p65
aVjohnellison
p66
aVryanrampage1
p67
aVsr-murthy
p68
aVjijojv
p69
aVrminnich
p70
aVgordinh
p71
aVsherm1
p72
aVpaultechguy
p73
aVblancgab
p74
aVseann1
p75
aVvinniejames
p76
aVZandor300
p77
aVapokalyptik
p78
aVOSP123
p79
aVRanthalion
p80
aVwooky
p81
aVbradjc
p82
aVgravyboat
p83
aVstebifan
p84
aVaziz
p85
aVthully
p86
aVfishulla
p87
aVrkh
p88
aVParukia
p89
aVjokomowho
p90
aVKenanSulayman
p91
aVbriandk
p92
aVjayrock7319
p93
aVruchimk
p94
aVkureikain
p95
aVInvyJulia
p96
aVDaneGardner
p97
aVjrjohansson
p98
aVanttisalonen
p99
aVTrozz
p100
aVclun
p101
aVcubiclesoft
p102
aVgtzampanakis
p103
aVnathanjsweet
p104
aVangelventura
p105
aVkylepolich
p106
aVjasongao
p107
aVAlex-Nabu
p108
aVcre8
p109
aVjamiees2
p110
aVthlorenz
p111
aVpmslavin
p112
aVjessewar
p113
aVAlexiDavis
p114
aVwireshark-gerrit
p115
aVtguzik
p116
aVkentosasa
p117
aVdwaring87
p118
aVejucovy
p119
aVmaximlevitsky
p120
aVasmartbear
p121
aVTyrant2013
p122
aVmaikimo
p123
aVdavidot
p124
aVsethm
p125
aVeggfly
p126
aVekbduffy
p127
aVedolstra
p128
aVTecnicoRichard
p129
aVjrwe
p130
aVbstockus
p131
aVArnoldM904
p132
aVApocalypticOctopus
p133
aVgriffingarland
p134
aVsgeorgiades
p135
aVnofxx
p136
aVquickfur
p137
aVdmdm
p138
aVnaglis
p139
aVlpereira
p140
aVTyilo
p141
aVhcodes
p142
aVSpirotot
p143
aVHeyIamJames
p144
aVJaronAPM
p145
aVsimpl
p146
aVspullara
p147
aVsemanticart
p148
aVkirstine78
p149
aVJEBoothjr
p150
aVrnathanday
p151
aVeripahle
p152
aVrohatiro
p153
aVsuhaildawood
p154
aVcalebhowington
p155
aVandrew-christianson
p156
aVkesco
p157
aVnisaface
p158
aVChiHsuChen
p159
aVsuitougreentea
p160
aVturph
p161
aVbdw429s
p162
aVniksilver
p163
aVezetter
p164
aVnicktendo64
p165
aVcoryasato
p166
aVishkacheckuvleky
p167
aVCaelanRP
p168
aVarchibaldovitch
p169
aVibsd
p170
aVdenschub
p171
aVviralata
p172
aVStephenJayYoung
p173
aVankitladhania
p174
aVbenfalk
p175
aVZorrax
p176
aVDaAlpha
p177
aVEmreKarahan
p178
aVfranciscod
p179
aVsoffes
p180
aVJer-kO
p181
aVcliffclick
p182
aVVelocityRa
p183
aVGrafikart
p184
aVtjhorner
p185
aVMoghedrin
p186
aVjayallen
p187
aVjohnkarlsson
p188
aVghenetz
p189
aVrobsheldon
p190
aVcmeiklejohn
p191
aVlaurent1
p192
aVdgalling
p193
aVandrewuhm
p194
aVtattyseal
p195
aVBlakeWilliams
p196
aVvtapadia
p197
aVlianilychee
p198
aVJhottMaster
p199
aVsinemetu1
p200
aVcjcliffe
p201
aVishayyaari
p202
aVgere0018
p203
aVpanpawn
p204
aVcbdavide
p205
aVomo
p206
aVmbernst
p207
aVannabd351
p208
aVAshitakaLax
p209
aVjmoon018
p210
aVcoil398
p211
aVmihaimaruseac
p212
aVrogueSkib
p213
aVGaelleA
p214
aVkmckiern
p215
aVogoodman
p216
aVaswmtjdsj
p217
aVjjjasperd
p218
aVmathnerdrk
p219
aVpatricknelson
p220
aVbenjamincaldwell
p221
aVCootCraig
p222
aVjonarnaldo
p223
aVbruston
p224
aVdai-shi
p225
aVmanduks
p226
aVwild-electrons
p227
aVkingstenbanh
p228
aVmattwigway
p229
aVsparklyballs
p230
aVjaeh
p231
aVameliamarie
p232
aVcatalin-luntraru
p233
aVMartynas-P
p234
aVpcruz96
p235
aVjaysonlane
p236
aVmohamedattahri
p237
aVShagans982
p238
aVkryo2k
p239
aVBenJamminnn
p240
aVbradenmacdonald
p241
aVhdavis0090
p242
aV3y3
p243
aVrmarinho
p244
aVwojzaremba
p245
aVtamil1
p246
aVjimmytam
p247
aVwanghaisheng
p248
aVpvmart
p249
aVstephenwinsor
p250
aVdaniel10012
p251
aVronaldmannak
p252
aVbdusell
p253
aVtpowell
p254
aVperegrinator
p255
aVJessAtBlocBoxCo
p256
aVdmcnicks
p257
aVxingxux
p258
aVHybridProgramming
p259
aVmttcrsp
p260
aVianmk2
p261
aVmaxwellclarke-wf
p262
aVFogger
p263
aVimuchnik
p264
aVjoshuamckenty
p265
aVbashaus
p266
aVmwanji
p267
aVAdamGagorik
p268
aVjshearer
p269
aVedgarsilva
p270
aVmlfryman
p271
aVruiztulio
p272
aVtarebyte
p273
aVcarolineorsi
p274
aVTheRingMaster
p275
aVJFreegman
p276
aVkriskd
p277
aVSaberUK
p278
aVmarkus101
p279
aVctolton
p280
aVSenhW
p281
aVnichedt
p282
aVqiangxue
p283
aVCorySimon
p284
aVivywireline
p285
aValfonsor
p286
aVnoahfriedman
p287
aVMatthewJA
p288
aVHavanna
p289
aVKerosene2000
p290
aVtategakibunko
p291
aVcxrodgers
p292
aVjnewman12
p293
aVHaemp
p294
aVlorrocha
p295
aVArcScofield
p296
aVcarlosp420
p297
aVmbasaglia
p298
aVcheungs7
p299
aV45H
p300
aVhbetts
p301
aVAppebyte
p302
aVbartnijssen
p303
aVmertkahyaoglu
p304
aVjizhang
p305
aVjmjcando
p306
aVhenryyang42
p307
aVvsoch
p308
aVZhenyingZhu
p309
aVyanhick
p310
aVtixxit
p311
aVpesegal
p312
aVrhoover
p313
aVkatydecorah
p314
aVjunjunguo
p315
aVkilleent
p316
aVrockdragon
p317
aVBassmint123
p318
aVsteventlamb
p319
aVzstarer
p320
aVtimsfu
p321
aVmianuddin
p322
aVwbic16
p323
aVCocoaPodsBot
p324
aVdmanaster
p325
aVjrmarino
p326
aVGrahamCampbell
p327
aVpchapin
p328
aVnarner
p329
aVcatherinedevlin
p330
aVbenmaurer
p331
aVdeadsy
p332
aVSunDi3yansyah
p333
aVtalaniz
p334
aVepriestley
p335
aVtianluyuan
p336
aVabronan
p337
aVwmeints
p338
aVutrescu
p339
aVxximjasonxx
p340
aVkalvinhuang1187
p341
aVgheisari
p342
aVelennaro
p343
aVasfgit
p344
aVicytin
p345
aVstezu
p346
aV309624472
p347
aVcodingtwinky
p348
aVevan82
p349
aVdulkappa
p350
aVrkumar2468
p351
aVpodviaznikov
p352
aVRORMasa
p353
aVdbrimley
p354
aVJohnLCaron
p355
aVguolb
p356
aVLoyen
p357
aVmorenoh149
p358
aVdmulloy2
p359
aVcmhughes
p360
aVmwarkentin
p361
aVjoedolson
p362
aVgrm34
p363
aVmykmelez
p364
aVZeframCochran
p365
aVmattlubner
p366
aVxndcn
p367
aVmkellner
p368
aVkeremavci
p369
aVPokemonMillennium
p370
aVcaoxiaoyi03
p371
aVnxfifteen
p372
aVlimor-gs
p373
aVsheganinans
p374
aVTrekDev
p375
aVKagami
p376
aVwpears
p377
aVcodenesium
p378
aVjhsu802701
p379
aVNikolaMandic
p380
aVshawnbot
p381
aVBrewTestBot
p382
aVearl
p383
aVdennisdegreef
p384
aVakotian
p385
aVmgroves84
p386
aVKaixiang
p387
aVTylerSandman
p388
aVpeterhoward42
p389
aVnotwaldorf
p390
aVfyfe
p391
aVmvattuone
p392
aVmemowii
p393
aVruzaq
p394
aVkrasin
p395
aVdeelusional
p396
aVtabishr
p397
aVnik7273
p398
aVSchmoopiie
p399
aVgreenwolfe
p400
aVLindsayYoung
p401
aVyujingwu
p402
aVzindlerb
p403
aVcspray
p404
aVvolkoff-pro
p405
aVTelos8840
p406
aVSarraBahbah
p407
aVsdouglas
p408
aVguptadeepak
p409
aVj3ffhubb
p410
aVneolao
p411
aVjgeumlek
p412
aVtigerquoll
p413
aVmissionsix
p414
aVvictorcastelan
p415
aVWChrisK
p416
aVomerkantar
p417
aValdrinleal
p418
aVUdjinM6
p419
aVdsm-git
p420
aVbensternthal
p421
aVcktricky
p422
aVtonyskapunk
p423
aVSkengrobot
p424
aVfreader
p425
aVlderrickable
p426
aVcanon4444
p427
aVrurseekatze
p428
aVwmfgerrit
p429
aVaschulz01
p430
aVtreckstar
p431
aVomarocegueda
p432
aVlots0logs
p433
aVdanielbarbarito
p434
aVshannondavidson
p435
aVk4hoo
p436
aVderekbruening
p437
aVarti95
p438
aVmcginty
p439
aVChris--A
p440
aVezyang
p441
aVarebe
p442
aVxuwenyihust
p443
aVadamlwatson
p444
aVdezkareid
p445
aVluis2faria
p446
aVyorchek
p447
aVatakankosuk
p448
aVbusterb
p449
aVamcgee
p450
aVpelya
p451
aVvuolter
p452
aVjolshevski
p453
aVpaddatrapper
p454
aVheiskr
p455
aViamthejonsmith
p456
aVandela-lmeke
p457
aVmjw56
p458
aVTorndeco
p459
aVvdthatte
p460
aVjoemerante
p461
aVshintamainjp
p462
aVmikestaub
p463
aVchastell
p464
aVdavidsavagejr
p465
aVarathael
p466
aVchigginsiii
p467
aVdrkitty
p468
aVmwuttke97
p469
aVDragoy
p470
aVdpejesh
p471
aVRandomlyKnighted
p472
aVNovynn
p473
aVhumayunjamal
p474
aVRaschidGithub
p475
aVbcforres
p476
aVbfanson
p477
aVCharlieGarcia
p478
aVMisterPotter
p479
aVgingerik
p480
aVruebenramirez
p481
aVmanelio
p482
aVjasonsturges
p483
aVambrop72
p484
aVsanchitgera
p485
aValvivar
p486
aVjovinbm
p487
aVizaid
p488
aVcarlhemp
p489
aVCurrentResident
p490
aVlynas
p491
aVmt2d2
p492
aVevgeniy-klemin
p493
aVspparker
p494
aVThadHouse
p495
aVjeremykohn
p496
aVnimirea
p497
aVmattparks
p498
aVmarwanhilmi
p499
aVcoderkevin
p500
aVJordanMussi
p501
aVdavid-ragazzi
p502
aVcodyjames
p503
aVlokson
p504
aVstumphunter
p505
aVrjleveque
p506
aVjacksontj
p507
aVLewisJEllis
p508
aVtanakakc
p509
aVdavidjconnolly
p510
aVCDandu16
p511
aVkubosho
p512
aVmding5692
p513
aVMorfent
p514
aVmarkfussell
p515
aVbryankennedy
p516
aVphilrykoff
p517
aVa4lg
p518
aVblakevanlan
p519
aVinvisibleroads
p520
aVCNDW
p521
aVtimbarnes
p522
aVteeerevor
p523
aVzhihaoli
p524
aVelehack
p525
aVWilliamRADFunk
p526
aVzumicts
p527
aVzy31415
p528
aVsmilansky
p529
aVtbaldys
p530
aVphasnox
p531
aVchrisber
p532
aVjuliocnsouzadev
p533
aVPepoBJ
p534
aVmikerobe
p535
aVchrist2go
p536
aVwaruboy
p537
aVerayarslan
p538
aVrohanbk
p539
aVandylouisqin
p540
aVDerRomtester
p541
aVtishpr
p542
aVphilsturgeon
p543
aVplayniuniu
p544
aVridvanbaluyos
p545
aVIVPSRyan
p546
aVzmillman
p547
aViLoveTux
p548
aVjosh
p549
aVhax
p550
aVjosephecombs
p551
aVsvpernova09
p552
aVdanawoodman
p553
aVGrinnz
p554
aVtinnightcap
p555
aVzifeishan
p556
aVjchansen
p557
aVnavinkumarkarn
p558
aVrdblue
p559
aVPiera
p560
aVwillrawls
p561
aVpranavanand123
p562
aVpingpan2013
p563
aVtmthyjames
p564
aVCorruptingAcid
p565
aVraydelto
p566
aVSirFizX
p567
aVlyrixliu
p568
aVrcaracaus
p569
aVwtfbbqhax
p570
aVLGD-Fr
p571
aVycp217
p572
aVjmickle
p573
aVnovoselt
p574
aVsbeslow
p575
aVanthelionztn
p576
aVkenjihata
p577
aVarmel
p578
aVFprince333
p579
aVdollardad
p580
aVmishin
p581
aVrurban
p582
aVjackson-
p583
aVbyronwasti
p584
aVnomadturk
p585
aVsudodoki
p586
aVpdinesurfer
p587
aVXandaros
p588
aVpatrick-hudson
p589
aVkayamak
p590
aVnathanpanchal
p591
aVjablonskim
p592
aVsophstad
p593
aVmmazur
p594
aVKnowledgeGarden
p595
aVkelseymwhelan
p596
aVKangDroid
p597
aVtodb-r7
p598
aVPartitionSystemDev
p599
aVtensorjack
p600
aVMattyC
p601
aVsmathy
p602
aVjanie177
p603
aVrobby-dermody
p604
aVcrawl-mirrorer
p605
aVdonaldgifford
p606
aVsemuhphor
p607
aVseanorama
p608
aVnaser13
p609
aVccbot
p610
aVmimosa
p611
aVfivedogit
p612
aVkevinkreiser
p613
aVChapDaddy65
p614
aVSkarath01
p615
aVdmiedema
p616
aVmicahyoung
p617
aVsmsohan
p618
aVnullpass
p619
aVkonjac
p620
aVjouji9
p621
aVratrocket
p622
aVkimwalisch
p623
aVhathix
p624
aVLeoHuiyi
p625
aVwaddlesplash
p626
aVyoonchee
p627
aVDennisNygren
p628
aVjbcm627
p629
aVmjreddick
p630
aValexthedev
p631
aVhivette
p632
aVsashax
p633
aVfusesource-ci
p634
aVOsmose
p635
aVjiangzoiGit
p636
aVmullinix
p637
aVBenAndy
p638
aVPancakeo
p639
aVrybnitom
p640
aVgrumpysi
p641
aVachaora
p642
aVpaulgribble
p643
aVsimonpatrick
p644
aVKarneck
p645
aVgit4ruby
p646
aVlucysaura
p647
aVyaroot
p648
aVlivewa
p649
aVansuz
p650
aVjesseditson
p651
aVSaisi
p652
aVmglaman
p653
aVfuturewarrior
p654
aVMartinusbe
p655
aVkalacommitbot
p656
aVekremkaraca
p657
aVkekcvn
p658
aVtoolbear
p659
aVCaptainkirkdawson
p660
aVAlec-Sobeck
p661
aVmlandres
p662
aVstonevil
p663
aVsyl20bnr
p664
aVzeeyang
p665
aVim85288
p666
aVkutlass
p667
aVAramZS
p668
aVcipher213
p669
aVKf4btg
p670
aVchase-seibert
p671
aVjason4short
p672
aVjeresig
p673
aVwyxmails
p674
aVVincentDev
p675
aVjeremycarroll
p676
aVsaitodisse
p677
aVoahiroaki
p678
aVOlly-
p679
aVbenmfaul
p680
aVwade123
p681
aVjeduden
p682
aVsethismyfriend
p683
aVtdbaddon
p684
aVluxe
p685
aVerikdesjardins
p686
aVakshayphadke
p687
aVkwhat
p688
aVandycshih
p689
aVParadiseGitHub
p690
aVZaliom
p691
aVjumanjiman
p692
aVMorpheusTeam
p693
aVcodemercenary
p694
aVdsluis
p695
aVcfe316
p696
aVjonathanpoelen
p697
aVcedeon
p698
aVyagoferrer
p699
aVjveldridge
p700
aVcout970
p701
aVLiamHu
p702
aVwebjay
p703
aVrahmanusta
p704
aVkilldash9
p705
aVamillman
p706
aVkenwalker
p707
aVfThues
p708
aVblarghmatey
p709
aVFathalian
p710
aVejsame
p711
aVjsnmrs
p712
aVjonschlinkert
p713
aVtubiz
p714
aVdanneu
p715
aVjoelkraft
p716
aVdpoehler
p717
aVericdouglas
p718
aVandrewyang96
p719
aVbillofrights
p720
aVGeeksRock
p721
aVvanceavalon
p722
aVabbott567
p723
aVzhangolve
p724
aVmekatronik-achmadi
p725
aVmaya7350
p726
aVizabera
p727
aVMeltedLux
p728
aVjeanechabaudis
p729
aVShMcK
p730
aVsshams
p731
aVrogueleaderr
p732
aVcovertg
p733
aVhubot
p734
aVdotMR
p735
aVgreekdev
p736
aVjoaniglesias
p737
aVAtlante45
p738
aValicenguyen
p739
aVhelhum
p740
aVMunsterberg
p741
aVdcbaker
p742
aVleeter
p743
aVcodertradergambler
p744
aVcatbox
p745
aVJakeWharton
p746
aVlukeshimanuki
p747
aVDanielOgorchock
p748
aVnpslater
p749
aVcarsondron
p750
aVzoghal
p751
aVderek14
p752
aVvoidz777
p753
aValansavoy
p754
aVMaltimore
p755
aVelersong
p756
aVDanNixon
p757
aVhudsonperalta
p758
aVallejo
p759
aVgabeold
p760
aVdumbox97
p761
aVlawhump
p762
aVKflash
p763
aVseadog007
p764
aVMoniqueHahnefeld
p765
aVdesignerwebhosting
p766
aVbwRavencl
p767
aVwenxiang20130910
p768
aVFredrikLindgren
p769
aVshaded-enmity
p770
aVnbedi
p771
aVmichaelrhodes
p772
aVgalenscovell
p773
aVstevenschlansker
p774
aVlootnath
p775
aVtxgruppi
p776
aVXiaoleiMeng
p777
aVFreedomFighter1
p778
aVdbanerjee1979
p779
aVjwogrady
p780
aVbrentr
p781
aVmwean
p782
aVjamespedwards42
p783
aVCTurt
p784
aVdenniscollective
p785
aVupcrob
p786
aVchrischoy
p787
aVSirCmpwn
p788
aVscotthartbti
p789
aViamandrebulatov
p790
aVDenLes
p791
aVstraz
p792
aVPoilon
p793
aVedressel
p794
aVztellman
p795
aVluismendozamx
p796
aVcvonbastian
p797
aVl2zeo
p798
aVandyjac
p799
aVkingofkung
p800
aVjefftune
p801
aVikysil
p802
aVjonathonreed
p803
aVabhillman
p804
aVsethherr
p805
aVhectoram
p806
aVgbo42
p807
aVtobinquadros
p808
aVultra-777
p809
aVyuronglong1996
p810
aVQETHAN
p811
aVMemphiz
p812
aVjcsalomon
p813
aVFiref0x
p814
aVthrivikramanps
p815
aVdylanmei
p816
aVdjspinmonkey
p817
aVnibalizer
p818
aVCharles-WC
p819
aVkenskyfish
p820
aVmaximebf
p821
aVbrzrkr
p822
aVCamtendo
p823
aVcoyote
p824
aVfxbois
p825
aVslowsteps
p826
aVRuslanIsrafilov
p827
aVdmgig
p828
aVandmarios
p829
aVdaideyan
p830
aVcmurphy
p831
aVttaylorr
p832
aVkj786
p833
aVwalkingsparrow
p834
aVdanielecook
p835
aVbfontaine
p836
aVprathamesh7pute
p837
aVbleroy
p838
aVLucasOliveira94
p839
aVtianon
p840
aVphilelauria
p841
aVrdeits
p842
aVOrvid
p843
aVkelseyljacobsen
p844
aVryo
p845
aVjmbarbier
p846
aVindiesquidge
p847
aVadamhub
p848
aVjimmybyrum
p849
aVFrank2312
p850
aVZhe-WANG
p851
aVwakaba
p852
aVnickschuch
p853
aVid-rach
p854
aVgwavebabe
p855
aVjtsternberg
p856
aVrforge
p857
aV523860169
p858
aVmelchiorrecaruso
p859
aVantonioortegajr
p860
aVmvandevander
p861
aVktind
p862
aVschurch
p863
aVStevenXL
p864
aVlucasw
p865
aVGNious
p866
aVknice
p867
aVgotjosh
p868
aVJwan622
p869
aVbigjosh
p870
aVantiboredom
p871
aVmirandaio
p872
aVkrysztalzg
p873
aVtripledes
p874
aVjpschewe
p875
aVseejee
p876
aVmonsterjamp
p877
aVmalept
p878
aVsagarlekar
p879
aVsafuus
p880
aVOregongov
p881
aVRisto-Stevcev
p882
aVflbulgarelli
p883
aVdavidudvardy
p884
aVmilkmanjack
p885
aVEugeValeiras
p886
aVqiwei9743
p887
aVblacknyancat
p888
aVackermanr
p889
aVjcooky
p890
aVZsIsMe
p891
aVjfmatth
p892
aVmikebcapp
p893
aVMrSmith33
p894
aVcalmhorizons
p895
aVackushiw
p896
aVslimpig879
p897
aVrandom-access
p898
aVJackXLu
p899
aVrossojianhan
p900
aVtemasek
p901
aVpgnfrsh
p902
aVallenwhitedev
p903
aVdae
p904
aVadmiralakber
p905
aVjcrb
p906
aVunknown2374
p907
aVAquassaut
p908
aVfirejake308
p909
aVdariaev
p910
aVlife0fun
p911
aVSCEDC
p912
aVamd7
p913
aVXXMrHyde
p914
aVpaulcon
p915
aVJaviani
p916
aVChrisMLee
p917
aVusdivad
p918
aVarifogel
p919
aVdbarobin
p920
aVnathanleclaire
p921
aVcpfair
p922
aVkylescottmcgill
p923
aVneo-inuit
p924
aVlvnilesh
p925
aVpaarsar
p926
aVabachar
p927
aVfenollp
p928
aVowverysweet
p929
aVandtxr
p930
aValiou
p931
aVvocoded
p932
aVThog92
p933
aVstefanpenner
p934
aVedgibbs
p935
aVaGiftKit
p936
aVlunn
p937
aVaji
p938
aVsmoh
p939
aVgjyoung1974
p940
aVmirgags
p941
aVskeeet
p942
aVMetaMemoryT
p943
aVkevin-montrose
p944
aVsoosap
p945
aVchotchki
p946
aVdylex
p947
aVjacmoe
p948
aVwkumari
p949
aVHarinlen
p950
aVYoshiShaPow
p951
aVmalekbr
p952
aVjohnnovak
p953
aVStelminator
p954
aVjryans
p955
aVtmfulton
p956
aVdavexunit
p957
aVSamWhited
p958
aVttmmghmm
p959
aValikaufman
p960
aVmarcelvoss
p961
aVbrmendez
p962
aVKazanz
p963
aVpillowsoft
p964
aVDanielRuf
p965
aVWallacoloo
p966
aVglvv
p967
aVg00glen00b
p968
aVcdleon
p969
aVBillMarty
p970
aVDaGenix
p971
aVaholstenson
p972
aVbeck24
p973
aVYingLiu4203
p974
aVsomeara
p975
aVbyronmccollum
p976
aVgopala-krishna
p977
aVbojingo
p978
aVRasPat1
p979
aVmichaelroth
p980
aVinfocortex
p981
aVmarcustedesco
p982
aVurbanswelt
p983
aVxl19870217
p984
aVvishuv
p985
aVTimSimpson
p986
aVcallmewhy
p987
aVMCMLXXXIV
p988
aVkyrias
p989
aVairy
p990
aVEmptyStackExn
p991
aVmonilpatel
p992
aVlistx
p993
aVMatthewErickson
p994
aVwangdeshui
p995
aVAdvAliGames
p996
aVix
p997
aVjasonstolaruk
p998
aVbuzoherbert
p999
aVgjd24scientist
p1000
aVdirtyrottenscoundrel
p1001
aVcollegboi
p1002
aVFallenGameR
p1003
aVprotomouse
p1004
aVAlistanis
p1005
aVJorgeX
p1006
aVvtnerd
p1007
aVeddersko
p1008
aVlushisang
p1009
aVAerialX
p1010
aVbrianfelder
p1011
aVnabaroa
p1012
aVjsr-software
p1013
aVevancz
p1014
aVunixabg
p1015
aVkevinchappell
p1016
aVk-okada
p1017
aVximinez
p1018
aVsherbondy
p1019
aVrossant
p1020
aVgnomesysadmins
p1021
aVjereksel
p1022
aVrogersb11
p1023
aVdsmitty166
p1024
aVbrianjcj
p1025
aVmil
p1026
aVdpblue27
p1027
aVdannomac
p1028
aVpedromorgan
p1029
aVdmanning23
p1030
aVmontehurd
p1031
aVitafroma
p1032
aVmip
p1033
aVrobhudson
p1034
aVcolin350
p1035
aVjleyba
p1036
aVkyledrake
p1037
aVYetAnotherMinion
p1038
aVjaurentz
p1039
aVRatmir15
p1040
aValanbhamilton
p1041
aVdourada
p1042
aVxiaofeima1990
p1043
aVeygraber
p1044
aVarcao
p1045
aVpriseborough
p1046
aVgraham3000
p1047
aVshulmanbrent
p1048
aVrandyleighton
p1049
aVPlenglin
p1050
aVnikhan
p1051
aVhartsick
p1052
aVmttr
p1053
aVydd0072
p1054
aVdcowden
p1055
aVJames137137
p1056
aVlatkin
p1057
aValau
p1058
aVptanton17
p1059
aVwilliam-gross
p1060
aVmichaelsproul
p1061
aVjmettraux
p1062
aVmagicode
p1063
aVNicoHinderling
p1064
aVJessC
p1065
aVgregtour
p1066
aVjonclayden
p1067
aVr4j4h
p1068
aVDenisCarriere
p1069
aVtunjos
p1070
aVphilhagen
p1071
aVDuuks
p1072
aVtkdrg
p1073
aVsyang1216
p1074
aVjohnnyliang213
p1075
aVlucachr
p1076
aVwzxjohn
p1077
aVwrdickson
p1078
aVcheerfulstoic
p1079
aVpeopleshit
p1080
aVschmonz
p1081
aVlouischan
p1082
aVMortifica
p1083
aVandroidarmv6-gerrit2
p1084
aVMitica
p1085
aVrussmatney
p1086
aVnkouevda
p1087
aVjustingreenberg
p1088
aVZhuoranYang
p1089
aVjvatic
p1090
aVummels
p1091
aVsaikobee
p1092
aVPernath
p1093
aVbwbaugh
p1094
aVEvaldasUzkuras
p1095
aVsam-m888
p1096
aVPaulCapestany
p1097
aVdave-hansen
p1098
aVMarcusMartinez
p1099
aVnodaguti
p1100
aVWoundTight
p1101
aVrmw
p1102
aVyajairo87
p1103
aVtyger07
p1104
aVmarcelofabri
p1105
aVphilsawicki
p1106
aVrmg
p1107
aVmhilker
p1108
aVkragniz
p1109
aVjeffnv
p1110
aVgusennan
p1111
aVjosephdavisco
p1112
aVdaveschaefer
p1113
aVwlin114
p1114
aVrlinehan
p1115
aVyallop
p1116
aVpgrandje
p1117
aVcrouse
p1118
aVFasgort
p1119
aVSamuelEnglard
p1120
aVgovinda1
p1121
aVbrentvatne
p1122
aVmajidsameni
p1123
aVSirupsen
p1124
aVdoingweb
p1125
aVdcartertwo
p1126
aVDevelopmentIL
p1127
aVbrooksman
p1128
aVileitch
p1129
aVgvanburen
p1130
aVcvrebert
p1131
aVbigdaz
p1132
aVrernst76
p1133
aVchrisanthropic
p1134
aVabcus
p1135
aVuna
p1136
aVWalterBright
p1137
aVdanho322
p1138
aVnolvorite
p1139
aVhkpcmit
p1140
aVAnimusPEXUS
p1141
aVdladowitz
p1142
aVingydotnet
p1143
aVjuniorsysadmin
p1144
aVkripken
p1145
aVMikaelSmith
p1146
aVjlumijarvi
p1147
aVsaeedahmadi
p1148
aVfge
p1149
aVjefferson-dab
p1150
aVGijsTimmers
p1151
aVthe-ntf
p1152
aVMarty-D
p1153
aVjavra
p1154
aVshirataki
p1155
aVmichael-cannon
p1156
aVdskae
p1157
aVdiianita
p1158
aVbricker
p1159
aVandytlr
p1160
aVcrafn
p1161
aVderekbrown
p1162
aVakiellor
p1163
aVdwightguth
p1164
aVvowsentente
p1165
aVjtbdevelopment
p1166
aVcarlthronson
p1167
aVlanej
p1168
aVgreboid
p1169
aVkhy
p1170
aVggopalan
p1171
aVwrall
p1172
aVjohnnst
p1173
aVoty
p1174
aVhackthevoid
p1175
aVtomasAlabes
p1176
aVtacaswell
p1177
aVkjk
p1178
aVliuheng
p1179
aVPhDuc
p1180
aValazier
p1181
aVsitag
p1182
aVafawcett
p1183
aVdavid941211
p1184
aVnickarino
p1185
aVlluang
p1186
aVpavlo-dudka
p1187
aVdumpram
p1188
aVionaic
p1189
aVjaydurant
p1190
aVpirej
p1191
aVmaximko
p1192
aVCicholGricenchos
p1193
aVcupakromer
p1194
aVmeganchen
p1195
aVr-ggraham
p1196
aVAndyReifman
p1197
aVqpfiffer
p1198
aVjoelpurra
p1199
aVjgke
p1200
aVfredkelly
p1201
aVridget
p1202
aVdavidturner
p1203
aVgoller
p1204
aVwjdavis5
p1205
aVlfsoftware13
p1206
aVwp-plugins-user
p1207
aVCraigyDavi
p1208
aVgraemeg
p1209
aVdaqo
p1210
aVBackdraft007
p1211
aVjaydenmilne
p1212
aVraghu233
p1213
aValeph7
p1214
aVgngrwzrd
p1215
aVmattlag
p1216
aVpieces029
p1217
aVpelhage
p1218
aVcmossboard
p1219
aVbscott
p1220
aVanthonyarivera
p1221
aVatribak
p1222
aVbbessemer
p1223
aVjoom
p1224
aVDeonPoncini
p1225
aVjoshgav
p1226
aVadriansoghoian
p1227
aVravikiranj
p1228
aVmnpenner
p1229
aVamandagrice
p1230
aVR-OG
p1231
aVidunnowhy9000
p1232
aVbeekay-
p1233
aVdwsteele
p1234
aVjbackman
p1235
aVButchDean
p1236
aVchenqihui
p1237
aVstevenremot
p1238
aVgreenorangeCN
p1239
aVNickSanzotta
p1240
aVsean-smith
p1241
aVsongawee
p1242
aVbonepeter
p1243
aVerik5388
p1244
aVmichelle123lam
p1245
aVtommyettinger
p1246
aVevely211
p1247
aVTheComet93
p1248
aVMKGitHub
p1249
aVScottDuke
p1250
aVHabbie
p1251
aVidanb55
p1252
aVtarr11
p1253
aVcato-
p1254
aVjakubtuchol
p1255
aVemgarten
p1256
aVymx
p1257
aVcboos
p1258
aVerykpiast
p1259
aVpault2k14
p1260
aVsharkzoo
p1261
aVAiNoKame
p1262
aVtomcashman
p1263
aVCourtneybpeters
p1264
aVMattyAyOh
p1265
aVeliotmiller
p1266
aVwnow20
p1267
aVwzrdtales
p1268
aVxiaoronglv
p1269
aVaure
p1270
aVjgm
p1271
aValexras
p1272
aVmikaelmagnuson
p1273
aVcavedude00
p1274
aVjparkerweb
p1275
aVguavuslabs-builder
p1276
aVklizhentas
p1277
aVJosephLeon
p1278
aVMichaelSnowden
p1279
aVmingfang
p1280
aVtinfante
p1281
aVjollyblume
p1282
aVDieyousay
p1283
aVjjmason
p1284
aVpochan
p1285
aVwickr
p1286
aVSteve132
p1287
aVbigbigwork
p1288
aVtupinek
p1289
aVcgp
p1290
aVbsbodden
p1291
aVderUli
p1292
aVaepic999
p1293
aVkeikun17
p1294
aVRich-Harris
p1295
aVVaibhav-Patel
p1296
aVlvallone
p1297
aVzingale
p1298
aVthoughtpunch
p1299
aVVoGu
p1300
aVtwbs-grunt
p1301
aVlusketeer
p1302
aVbaumanab
p1303
aVerictchiu
p1304
aVjohnwmcc
p1305
aVjgelb
p1306
aVcmusser
p1307
aVdusdong
p1308
aVkangkyu
p1309
aVbbyars
p1310
aVOzzie3000
p1311
aVauge8472
p1312
aVinokappa
p1313
aVkbruner32
p1314
aVwmst
p1315
aVkjell
p1316
aVArthurChiao
p1317
aVcitibob
p1318
aVCOhsrt
p1319
aVjcward
p1320
aVwangshan
p1321
aVExclusiveOrange
p1322
aVjoecohens
p1323
aVzhanbosun
p1324
aVzunayed
p1325
aVRosenberry
p1326
aVOneAvocet
p1327
aVfurenku
p1328
aVllk-pootle
p1329
aVjenkins-github-at-somewhere
p1330
aVtimcampbell
p1331
aVneutrak
p1332
aVIssamElbaytam
p1333
aVscottdraves
p1334
aVneogeek
p1335
aVtbartelmess
p1336
aVvharseko
p1337
aVdgasmith
p1338
aVdemsey
p1339
aVmunshkr
p1340
aVdfberry
p1341
aVashsidhu
p1342
aVazu
p1343
aVRowdyChildren
p1344
aVjrabbit
p1345
aVTOGoS
p1346
aVkashike
p1347
aVheaddetect
p1348
aVVictorLowther
p1349
aVvulpineblaze
p1350
aVjohnpbloch
p1351
aViknowcss
p1352
aVsinkuu
p1353
aVadesuwau
p1354
aVkalozier
p1355
aVraymond-w-ko
p1356
aVmatthiasak
p1357
aVjkatz
p1358
aVjlmucb
p1359
aVdankempster
p1360
aVppannuto
p1361
aVnitemv
p1362
aVzcpdog
p1363
aVjddixon
p1364
aVRaphhh
p1365
aVFizzadar
p1366
aVjfly
p1367
aVnickles-lee
p1368
aVbert
p1369
aVjkulesza
p1370
aVhemmrich
p1371
aVWillWebDesign
p1372
aVcleesmith
p1373
aVericholscher
p1374
aVsdao
p1375
aVmbille46
p1376
aVraptorswing
p1377
aVCodeversum
p1378
aVjonathansick
p1379
aVsosedoff
p1380
aVmproncace
p1381
aVgridaphobe
p1382
aVCarlSteven
p1383
aVrkhmelichek
p1384
aVandersr
p1385
aVSonictherocketman
p1386
aVkatz
p1387
aVmirror-updates
p1388
aVxaque208
p1389
aVdlorenc
p1390
aVagibsonccc
p1391
aVandrewrk
p1392
aVricardon
p1393
aVakiokanashiki
p1394
aVju2ta2
p1395
aVmattkirby
p1396
aVFredericKtan
p1397
aVniksedk
p1398
aVJitendraZaa
p1399
aVpeterbourgon
p1400
aViabarca
p1401
aVmadsen
p1402
aVshabnam-h
p1403
aVparkerbyrd
p1404
aValevy
p1405
aVaugustl
p1406
aVsckott
p1407
aVmaxihatop
p1408
aVQining
p1409
aVlinman0x90
p1410
aVstaefy
p1411
aVahchienong
p1412
aVtylerneylon
p1413
aVrocket-raccoon
p1414
aVrafewenger
p1415
aVtheannielin
p1416
aVhdima
p1417
aVValicek1
p1418
aVzakk666
p1419
aVconnyay
p1420
aVHuaTiMeiTian
p1421
aVfoosel
p1422
aVhaata
p1423
aVnlhkabu
p1424
aVgothame
p1425
aVgg7
p1426
aVhubick
p1427
aValex6lc
p1428
aVnaijaping
p1429
aVmartynmayfield
p1430
aVmdamt
p1431
aVpepperminttiger
p1432
aVryuzee
p1433
aVmartindevnow
p1434
aVcooksm
p1435
aVdimsuz
p1436
aVajpmaclean
p1437
aVjohnbturnip
p1438
aVBryanHunt
p1439
aVmillerjs
p1440
aVhornygranny
p1441
aVmisrab
p1442
aVscdoshi
p1443
aVkeithw
p1444
aVklaava
p1445
aVpionnertech
p1446
aVtomalexander
p1447
aVraorao
p1448
aVJuku-san
p1449
aVelliekimpot
p1450
aVnetanelgilad
p1451
aVrichardraseley
p1452
aVwkandek
p1453
aVakatray
p1454
aVzhongyn
p1455
aVbenjiro
p1456
aVJagendra
p1457
aViggyster3
p1458
aVTyRoXx
p1459
aVkuwalab
p1460
aVthebrandonallen
p1461
aVszkl
p1462
aVtakata
p1463
aVcalho
p1464
aVRobLoach
p1465
aVkrishna81m
p1466
aVenglishextra
p1467
aVlifeinchords
p1468
aVceg1236
p1469
aVYingliang-Du
p1470
aVksclarke
p1471
aVUncleleech
p1472
aVsundaymtn
p1473
aVteamcrisis
p1474
aVrschaten
p1475
aVjackspaniel
p1476
aVtaraneier
p1477
aVbeerecca
p1478
aVshouptech
p1479
aVjvodan
p1480
aVsakurasakuras
p1481
aVericjhlee
p1482
aVFalconbase
p1483
aVgema-arta
p1484
aVChrisAdderley
p1485
aVrwjblue
p1486
aVwwj718
p1487
aVsipwise-jenkins
p1488
aVianrose
p1489
aVHouseMonitor
p1490
aVTanginatushar
p1491
aVBRETT71
p1492
aVsilenceleaf
p1493
aVmnquintana
p1494
aVredmagebr
p1495
aVskylargivens
p1496
aVdjmitche
p1497
aVSeanMEpi
p1498
aVmisko
p1499
aVmark-archer
p1500
aVsteffanc
p1501
aVRobinDumontChaponet
p1502
aVffleming
p1503
aVanagno
p1504
aVjakimfett
p1505
aVlittletinyfish
p1506
aVhamstu
p1507
aVzlek
p1508
aVywwg
p1509
aVjuanpabloaj
p1510
aVfalkTX
p1511
aVlzh2nix
p1512
aVsimonpac
p1513
aVkayakMike
p1514
aVmikepsn
p1515
aVCaioIcy
p1516
aVstijnvanderidder
p1517
aVcrookedneighbor
p1518
aVmarcusandre
p1519
aVcfallin
p1520
aVdexman545
p1521
aVtaroxd
p1522
aVevverx
p1523
aVmishavetl
p1524
aVlon3wolf
p1525
aVthejoshwolfe
p1526
aVPLMbugz
p1527
aVminimitch0199
p1528
aVlehitoskin
p1529
aViganari
p1530
aVZakCreeper
p1531
aVDivaVocals
p1532
aVbenas
p1533
aVrkkarn32
p1534
aVAsteroidTrackerUpdateSystem
p1535
aVaaaydin
p1536
aVcarueda
p1537
aVdmacosta
p1538
aVJCThePants
p1539
aVexpressLingoport
p1540
aVKatianie
p1541
aVLeonardoVal
p1542
aValexformagio
p1543
aVmicahwoods
p1544
aVshsong97
p1545
aVclairton
p1546
aValexshepard
p1547
aVinterstateone
p1548
aVswegener
p1549
aVhovlev
p1550
aVOctane
p1551
aVneedo37
p1552
aVtimesking
p1553
aVMigrantJ
p1554
aVaghayoor
p1555
aVfkrstevski
p1556
aVjohnpc
p1557
aVdotsdl
p1558
aVtyler-sommer
p1559
aValexhawkins
p1560
aVacmetech
p1561
aVeladio19
p1562
aVninjahoahong
p1563
aVgweizman
p1564
aVMatthewJWalls
p1565
aVjonreid
p1566
aVChrisFrench
p1567
aVmegasus
p1568
aViloomni
p1569
aVtw2113
p1570
aVquirkles
p1571
aVsjkingo
p1572
aVJonasOlson
p1573
aVmierze
p1574
aVzakiali
p1575
aVwesdizzle
p1576
aVmpoegel
p1577
aVkisg
p1578
aVraymondethan
p1579
aVAlbinoman887
p1580
aVO-I
p1581
aVmalev
p1582
aVcmacivor
p1583
aVwaynegramlich
p1584
aVtimsiwula
p1585
aVrachidkada
p1586
aVonlyandrewn
p1587
aVchrisvmiller
p1588
aVyu-ichiro
p1589
aVPatrickDropbox
p1590
aVleonardorb
p1591
aVandersonmills
p1592
aVseinokatsuhiro
p1593
aVHoffsMH
p1594
aVdjstroky
p1595
aVrpappalax
p1596
aVralph3991
p1597
aVfelipegressler
p1598
aVjcaddel
p1599
aVgfx
p1600
aVVoltir
p1601
aVsanielfishawy
p1602
aVhorthy
p1603
aVliouh
p1604
aVcamsc
p1605
aVnmikz
p1606
aVrvagg
p1607
aVedanpiro
p1608
aVdauidus
p1609
aVjonsterling
p1610
aVtonysuu
p1611
aVemfree
p1612
aVvandres
p1613
aVshevek
p1614
aVjaredhaight
p1615
aVevz
p1616
aVDavidOry
p1617
aVfrankrs
p1618
aVtimmmmyboy
p1619
aVthewebdncr
p1620
aVandyburke
p1621
aVsko
p1622
aVadamlutz
p1623
aVserkanaltuntas
p1624
aVhawksprite
p1625
aVdouglasgoodwin
p1626
aVLoquats
p1627
aVmaxive
p1628
aVlpm11
p1629
aVchcholman
p1630
aVhao6yu
p1631
aVBananaWagon
p1632
aVtomkeeper2014
p1633
aVjchristi
p1634
aVtoshi-sakai
p1635
aVaustinjung
p1636
aVhaslo
p1637
aV3ft9
p1638
aViciorba
p1639
aVraffaellod
p1640
aVmaxchursin
p1641
aVdaffl
p1642
aVwebbusinessdeveloper
p1643
aValpinenow-bot
p1644
aVpeterdalle
p1645
aVkshedden
p1646
aVleoncheng57
p1647
aVjoaopedronardari
p1648
aVneocxi
p1649
aVVamoQueVamo
p1650
aVnboneh
p1651
aVbradleypallen
p1652
aVdellipse
p1653
aVReliQ
p1654
aVkiahosseini
p1655
aVnwinter
p1656
aVChristmasBug
p1657
aVfeklee
p1658
aVmountHouli
p1659
aVking89
p1660
aVkravietz
p1661
aVbyan
p1662
aVAutodidact24
p1663
aVkevinmeredith
p1664
aVshawnli2010
p1665
aVsu-github-machine-user
p1666
aVnecrobuffalo
p1667
aVdwagon
p1668
aVkencochrane
p1669
aVwcaleb
p1670
aVhamsternik
p1671
aVjohnraber
p1672
aVaustinkelleher
p1673
aVrussellowen
p1674
aVjiangzho
p1675
aVsenthilnathansk
p1676
aVtwhite96
p1677
aVbrettkiefer
p1678
aVjbrennan
p1679
aVLiamSchauerman
p1680
aVepait
p1681
aVFacedownPhp
p1682
aVlbrentcarpenter
p1683
aVkmcguire3413
p1684
aVycanales
p1685
aVbabylonhx
p1686
aVcyberious
p1687
aVnwgat
p1688
aVEliyah7
p1689
aVfrewsxcv
p1690
aVdweekly
p1691
aVagaye
p1692
aVmanuel-rubio
p1693
aVevandelacruz
p1694
aVdeadanger
p1695
aVlendormi
p1696
aVste93cry
p1697
aVdebdattabasu
p1698
aVFaultyRAM
p1699
aVmitchell852
p1700
aVsckevmit
p1701
aVpaulovidalpereira
p1702
aVxuanyuan2
p1703
aVAlex-302
p1704
aValicanozer
p1705
aVjamesr66a
p1706
aVjakesyl
p1707
aVrade
p1708
aVbriandipalma
p1709
aVpirog
p1710
aVgitter-badger
p1711
aVKateAdams
p1712
aVyannickoo
p1713
aVmilaney
p1714
aVrodrigo-m-martins
p1715
aVg-anthony
p1716
aVPI-Victor
p1717
aVllvm-mirror
p1718
aVatomkirk
p1719
aVdduugg
p1720
aVrobmypark
p1721
aVrandomwangran
p1722
aVbnordgren
p1723
aVicco
p1724
aVkmontag
p1725
aVdanielnixon
p1726
aViRoachie
p1727
aVMadoxLabs
p1728
aVplouc
p1729
aVjameswfoster
p1730
aVshahar96
p1731
aVF21
p1732
aVy-moriguchi
p1733
aVdamontallen
p1734
aVsamerhalawani
p1735
aVbrhelwig
p1736
aVkendaleiv
p1737
aVmscarlett
p1738
aVlucaswiman
p1739
aVmaybeiambatman
p1740
aVhpfmn
p1741
aVfponticelli
p1742
aVsanssecours
p1743
aVdevgreen
p1744
aVtux3
p1745
aVkarlmdavis
p1746
aVkashjs
p1747
aVraymondware
p1748
aVopenstack-gerrit
p1749
aVovertrue
p1750
aVjiashuw
p1751
aVThomasPr
p1752
aVajinkya-chintawar
p1753
aVConutant
p1754
aVyjsoon
p1755
aVobihill
p1756
aVctrezevant
p1757
aVrsisx9
p1758
aVspencerahill
p1759
aVphilmatthews
p1760
aVkrose72205
p1761
aVwahlmanj
p1762
aVokomok
p1763
aVhwine
p1764
aVwdbm
p1765
aVbreznak
p1766
aVtyler-cromwell
p1767
aVRKim220
p1768
aVspall03
p1769
aVcsmith
p1770
aVjbhaywood00
p1771
aVdevelone
p1772
aVkiith-sa
p1773
aVdamondouglas
p1774
aVvoidpigeon
p1775
aVniveditak
p1776
aVengleek
p1777
aVrupa
p1778
aVaow1980
p1779
aVrcdunnii
p1780
aVomkarmoghe
p1781
aVProgVal
p1782
aVnsd20463
p1783
aVnerdinand
p1784
aVjcmunozf
p1785
aVLGlavin
p1786
aVParadigm101
p1787
aVharshiet
p1788
aVdavenportw15
p1789
aVkwooten
p1790
aVmatthew-compton
p1791
aVjpsim
p1792
aVww44ss
p1793
aVmemerelics
p1794
aViandunn
p1795
aVMDCox
p1796
aVAp0ph1s
p1797
aVyosifkit
p1798
aVabustamam
p1799
aVendo199
p1800
aVguidoprincess
p1801
aVleslstrauss
p1802
aVMGatz
p1803
aVK-Akimasa
p1804
aVxanister
p1805
aVNVI
p1806
aVediTv2
p1807
aVgeekofalltrades
p1808
aVmirjalil
p1809
aVgabeshaughnessy
p1810
aVmeatballhat
p1811
aVevturn
p1812
aVgiorgiosaud
p1813
aVzhenghao35791
p1814
aVgreatfire
p1815
aVwbhart
p1816
aVfirerml
p1817
aVzdeluna
p1818
aVslurp-logs
p1819
aVSchumacherFM
p1820
aVwoodenrabbit
p1821
aVaatxe
p1822
aVgmaclennan
p1823
aVAkirAssasin
p1824
aVwbyoung
p1825
aVian-moore
p1826
aVAttamusc
p1827
aVgarvinob
p1828
aVmtchavez
p1829
aVaustinkregel
p1830
aVvab2048
p1831
aVcssimsek
p1832
aVmbech
p1833
aVRRedFalcon
p1834
aVManny1995
p1835
aVmahatiKay
p1836
aValfateam123
p1837
aVEC-Chris
p1838
aVohtake
p1839
aVaamedina
p1840
aVdirk-thomas
p1841
aVbigeast
p1842
aVChinook-
p1843
aVVincent-Michael
p1844
aVraymond301
p1845
aVSuperTux88
p1846
aVpuzrin
p1847
aVjaekwon
p1848
aVAmadoDomper
p1849
aVMaxMorgenstern
p1850
aVblitzmann
p1851
aVHazemAM
p1852
aVeyberg
p1853
aVrusefi
p1854
aVkikill95
p1855
aVYellowGreenBlue
p1856
aVscotteg
p1857
aVmtrippled
p1858
aVthe-cdnjs-curator
p1859
aVbueller
p1860
aVpolyzen
p1861
aVHayleyCAnderson
p1862
aVtylerwal
p1863
aVstilomio
p1864
aVtris
p1865
aVmafintosh
p1866
aVuqs
p1867
aVnahidcse05
p1868
aVpaciorek
p1869
aVemanueLczirai
p1870
aVhilbix
p1871
aVcymbalrush
p1872
aVkoryp
p1873
aVtoddwseattle
p1874
aVvidbina
p1875
aVjordandong
p1876
aVfitzgen
p1877
aVlaheadle
p1878
aVrandomstring
p1879
aVjkearse3
p1880
aVdodzh
p1881
aVlevisl176
p1882
aVMilanAryal
p1883
aVxbony2
p1884
aVmquandalle
p1885
aVJamesByron
p1886
aV49kazuki
p1887
aVp-mcgowan
p1888
aVphilz
p1889
aVinnovien
p1890
aVcameronwhite
p1891
aVBahaTN
p1892
aVjosephschmitt
p1893
aVenewman17
p1894
aVxuhdev
p1895
aVjohngb
p1896
aValexcode18
p1897
aVsixsixfive
p1898
aVqpliu
p1899
aVgregorytkach
p1900
aVogupte
p1901
aVDr-Xperience
p1902
aVtuankiet65
p1903
aVm1k3s
p1904
aVJimHokanson
p1905
aVschloo
p1906
aVbernierm
p1907
aVRamEduard
p1908
aVmsabramo
p1909
aVsrsgores
p1910
aVjojobyte
p1911
aVondrejsika
p1912
aVvid
p1913
aVsjberry
p1914
aVsigmavirus24
p1915
aVZialus
p1916
aVardagnir
p1917
aVjsvennevid
p1918
aVWafflespeanut
p1919
aVMeilCli
p1920
aVzachary-foster
p1921
aVwe555
p1922
aVmohdsalman86
p1923
aVKatherineMichel
p1924
aVMichaelangel007
p1925
aVZDroid
p1926
aVecholevel
p1927
aV90-proof
p1928
aVxandark
p1929
aVsuperMsp10
p1930
aVsmeighan
p1931
aVcertifiedloud
p1932
aVoctalmage
p1933
aVzwm5000
p1934
aVerinekim
p1935
aVtgaloppo
p1936
aVystyle
p1937
aVlookyhooky
p1938
aV12finger
p1939
aVrobelgeda
p1940
aVevinism
p1941
aVjamestaylr
p1942
aVjell0720
p1943
aVshubhamd
p1944
aVSteveHagins
p1945
aVshahzeb1
p1946
aVkeum
p1947
aVbkaradzic
p1948
aVgeorge-hopkins
p1949
aVabhinandh
p1950
aVchrisborneman
p1951
aVmingyuanzhou
p1952
aVconradarcturus
p1953
aVJamesPiechota
p1954
aVliurenjie
p1955
aVftzeng
p1956
aVssvb
p1957
aVauburus
p1958
aVXeTK
p1959
aVbl4ckscor3
p1960
aVwvu-r7
p1961
aVHunterIO
p1962
aVjsalaber
p1963
aVdennisjs0910
p1964
aVterrehbyte
p1965
aVfcanas
p1966
aVVilyan01
p1967
aVdhmunro
p1968
aVkatiekroik
p1969
aVRick--D
p1970
aVSjeiti
p1971
aVnopjmp
p1972
aVrchoetzlein
p1973
aVnick-knight
p1974
aVarunsivasankaran
p1975
aVdeepakajaylinux
p1976
aVdaattali
p1977
aVYusai
p1978
aVellisonch
p1979
aVchrisseaton
p1980
aVmartinthomson
p1981
aVrobinsato
p1982
aVMarkusAV
p1983
aVagalazis
p1984
aVmdlerch
p1985
aVAnthony-Dev
p1986
aVcrankycoder
p1987
aVVextil
p1988
aVok100
p1989
aVronbin
p1990
aVtiffanyqi
p1991
aVcoolsquid
p1992
aVMaverickChaser
p1993
aVadamchester
p1994
aVfibo
p1995
aVrafaelmersant
p1996
aVklensy
p1997
aVfabiocerqueira
p1998
aVmrkrstphr
p1999
aVNyarum
p2000
aVdanReynolds
p2001
aVkatsyoshi
p2002
aVElmuch
p2003
aVggianna
p2004
aVkaishin
p2005
aVTimePath
p2006
aVbillyham
p2007
aVcelkins
p2008
aVvegitron
p2009
aVAdamwgoh
p2010
aVnjdup
p2011
aVenukane
p2012
aVcarlos-a-rodriguez
p2013
aVJoishi
p2014
aVFedorBoretsky
p2015
aVagorf
p2016
aVdwaxemberg
p2017
aVhgducharme
p2018
aVrsimba
p2019
aVctrezzo
p2020
aVlinneman
p2021
aVmcrovella
p2022
aValesegdia
p2023
aVrichardgaas
p2024
aVnischalsheth
p2025
aVtechman83
p2026
aVjoncasey
p2027
aVmeecoder
p2028
aVTangRufus
p2029
aVmachchk
p2030
aVjohnttan
p2031
aVkrujos
p2032
aVmikesilvo164
p2033
aVloveencounterflow
p2034
aVkunass2
p2035
aVswainn
p2036
aVcoballast
p2037
aVliufan321
p2038
aVgitacct
p2039
aVchocolatetoothpaste
p2040
aVAlaskanShade
p2041
aVryanplusplus
p2042
aVUter1007
p2043
aVglosuser
p2044
aVdenoflionsx
p2045
aVibraheem4
p2046
aVowen-d
p2047
aVisaacg1
p2048
aVwesturner
p2049
aVmwsobol
p2050
aVyildizib
p2051
aVxesj
p2052
aVsoumith
p2053
aVnsant4
p2054
aVkarthicimp
p2055
aVjillalynch
p2056
aVP7h
p2057
aVstradivarius10
p2058
aVyanpeipan
p2059
aVSam647254
p2060
aVxieyubo
p2061
aVprabhash1785
p2062
aVantonsolovyev
p2063
aVmike-spainhower
p2064
aVreleasethebats
p2065
aVbchoomnuan
p2066
aVootput
p2067
aVrranelli
p2068
aVdoctorjbeam
p2069
aVjelugbo
p2070
aVprospectrobotics
p2071
aVjosephyzhou
p2072
aVharryganz
p2073
aVzhaofengli
p2074
aVDrRobotmck
p2075
aViancrowther
p2076
aVjordanpapaleo
p2077
aVjmochel
p2078
aVemmanueltouzery
p2079
aVlujinran
p2080
aVMillerRidgeway
p2081
aVOdenthalKay
p2082
aVnathanperkins
p2083
aVpatrickmeehan
p2084
aVdevasaur
p2085
aVJohannes-Larsson
p2086
aVREV3NT3CH
p2087
aVrhyolight
p2088
aVrrichards
p2089
aVMushiwulf
p2090
aVromanoaugusto88
p2091
aVmdkholy
p2092
aVrickhutcheson
p2093
aVohchristina
p2094
aVariddell
p2095
aVkcr
p2096
aVianmiell
p2097
aVIrvinFan
p2098
aVjudyls
p2099
aVchriscauley
p2100
aVfloydpink
p2101
aVkahvel
p2102
aVRafael-Lin
p2103
aVbobzabor
p2104
aVpatriciacarbajal
p2105
aVvishal0071
p2106
aVvictor-o-silva
p2107
aVjoshfinnie
p2108
aVrebel1324
p2109
aVjjviscomi
p2110
aVanahatbabbar
p2111
aVjonschipp
p2112
aVaolin480
p2113
aVdavydovanton
p2114
aVmusicprogram
p2115
aVBenTheHokie
p2116
aVscotttherobot
p2117
aVeferro
p2118
aVzhang-ning
p2119
aVtouchandswipe
p2120
aVUunnamed
p2121
aVteam3cord
p2122
aVsuntzu86
p2123
aVabi-git-user
p2124
aVmrscribe
p2125
aVzunda
p2126
aVyfy-
p2127
aVfauxfiction
p2128
aVgauravsaxena21
p2129
aVabiehaf
p2130
aVcyberjoac
p2131
aVcantsin
p2132
aVtanelpuhu
p2133
aVcneuwirt
p2134
aVscpeters
p2135
aVmatt-otis
p2136
aVnosferalatu
p2137
aVbbdjjtx
p2138
aVtristanz
p2139
aVyou21979
p2140
aVdiegodesouza
p2141
aVvy-nguyen
p2142
aVkud
p2143
aVontariosingh
p2144
aVritwikdixit
p2145
aVkarubabu
p2146
aVdezil
p2147
aVnikhil
p2148
aVqincheng
p2149
aVDimitarRuskov
p2150
aVapatti
p2151
aVzhang3
p2152
aVthsutton
p2153
aVpiFra
p2154
aVtbaugh
p2155
aVWilliamHuey
p2156
aVRockvole
p2157
aVMrFlynn
p2158
aVbruschill
p2159
aVfrankcleary
p2160
aVcannatag
p2161
aVThatGuySam
p2162
aVbenkrikler
p2163
aVderekr
p2164
aVbnookala
p2165
aVdreamingmind
p2166
aVlouisscruz
p2167
aVakirakungza
p2168
aVChromoX
p2169
aVtorresdal
p2170
aVjonlai
p2171
aVjesse5e
p2172
aVjohnmu
p2173
aVmatthew-dean
p2174
aVkainxspirits
p2175
aVqdm
p2176
aVfchimero
p2177
aVccomeaux
p2178
aVwaltzofpearls
p2179
aVEndoMatrix
p2180
aVgmjosack
p2181
aVscottomary
p2182
aVtgraupmann
p2183
aVtraumverloren
p2184
aVschwartzmx
p2185
aVmamcmanus
p2186
aVT31
p2187
aVfrznlogic
p2188
aVconnorbillen
p2189
aVle0pard
p2190
aVwkcool
p2191
aVSalGnt
p2192
aVohanar
p2193
aVParent5446
p2194
aVLordHumungous
p2195
aVporglezomp
p2196
aVjorava
p2197
aVtheshteves
p2198
aVamycodes
p2199
aVbennettslin
p2200
aVDavidEGrayson
p2201
aVprufrock123
p2202
aVsorakumohoshizora
p2203
aVjoelcoxokc
p2204
aVjustindomingue
p2205
aVYoxem
p2206
aVdevChuk
p2207
aVMozillaPootleL10nBot
p2208
aVyacinemerzouk
p2209
aVTheCreeper
p2210
aVDaniel-Oliynyk
p2211
aVkbastien
p2212
aVJamesking56
p2213
aVhultberg
p2214
aVdchusovitin
p2215
aVtpgmartin
p2216
aVAlexKnauth
p2217
aVirazasyed
p2218
aVheckendorfc
p2219
aVasarmiento
p2220
aVwaintats
p2221
aVdcorns
p2222
aVHenrycobaltech
p2223
aVjphanna
p2224
aVYungKC
p2225
aVArtNattapat
p2226
aVjmhmd
p2227
aVscreamconjoiner
p2228
aVfohlsom
p2229
aVlennonsaves
p2230
aVchrisfried
p2231
aVkesiena115
p2232
aVmouyong
p2233
aVxuwenbo
p2234
aVChaldron
p2235
aVdimster2013
p2236
aVBeck-Sisyphus
p2237
aVDaveCranidge
p2238
aVjburgos1
p2239
aVlaurentb
p2240
aVmedined
p2241
aVkrustur
p2242
aVcavaliercoder
p2243
aVslayher
p2244
aVpasmanp
p2245
aVnaturalist
p2246
aVaedobyns
p2247
aViScript
p2248
aVwalnotes
p2249
aVimr
p2250
aVheroish
p2251
aValeexkj
p2252
aVxJoelituh
p2253
aVjamesbornholt
p2254
aVkeyitem
p2255
aVomphalosskeptic
p2256
aVspenciefy
p2257
aVKastanOV
p2258
aVsachac
p2259
aVtromp
p2260
aVazat385
p2261
aVhiswitness
p2262
aVshurcooL
p2263
aVtim-cheng
p2264
aVahastudio
p2265
aVjohnie
p2266
aVtravis6888
p2267
aVdanhunsaker
p2268
aVzwparchman
p2269
aVdhaowoods
p2270
aValexsaves
p2271
aVRmarmorstein
p2272
aVtkralphs
p2273
aVdcharbonnier
p2274
aVMicheus
p2275
aVriceissa
p2276
aVhy0kl
p2277
aVtan-wyman
p2278
aV6NGB
p2279
aVaswartz
p2280
aVelliotchance
p2281
aV7U7K0W5K1
p2282
aVRoyHP
p2283
aVrhalff
p2284
aVmapyo
p2285
aVvinkobuble
p2286
aVhirosan999
p2287
aVchucai2000
p2288
aVcntrlwiz
p2289
aVesthervillars
p2290
aVlefticus
p2291
aVekansa
p2292
aVglennrp
p2293
aVTriptychGames
p2294
aVet1337
p2295
aVstephenlawrence
p2296
aVmrblueblue
p2297
aVRichardLake
p2298
aVJColuch
p2299
aVCactose
p2300
aVdanx0r
p2301
aVbuunguyen
p2302
aVyulinwang
p2303
aVvictordev
p2304
aVtparnell8
p2305
aVdfg129
p2306
aVmgalgs
p2307
aVFerdi265
p2308
aVdistrict10
p2309
aVdivinami
p2310
aVfreeweibo
p2311
aVslindberg
p2312
aVrainliu
p2313
aVmd5
p2314
aVeliquious
p2315
aVtridge
p2316
aVthekemkid
p2317
aVbluethon
p2318
aVKracko
p2319
aVtako-black
p2320
aVpickle27
p2321
aVliterallysame
p2322
aVDbz
p2323
aVsumdog
p2324
aVdanielabar
p2325
aVTelerias
p2326
aVEliRibble
p2327
aVbrendomaciel
p2328
aVlegacy-review
p2329
aVjohntfoster
p2330
aVanden3
p2331
aVmoritz
p2332
aVjacebrowning
p2333
aVMarooner5
p2334
aVdavidbarsky
p2335
aVmnizinski79
p2336
aVmossby
p2337
aVadho12
p2338
aVwllmtrng
p2339
aVzanetu
p2340
aVjoonlim
p2341
aVwaxerdima
p2342
aVandersevenrud
p2343
aVnmajor
p2344
aVvinniefalco
p2345
aVmagik6k
p2346
aVst0le
p2347
aVjessecascio
p2348
aVmikemackintosh
p2349
aVLackeySoft
p2350
aVzakdoesgaming
p2351
aVericleong
p2352
aVreinfurt
p2353
aVSylvainPlessis
p2354
aVhaydenmc
p2355
aVbenhamner
p2356
aVc0state
p2357
aVautomenta
p2358
aVjmichalek
p2359
aVnnaliu
p2360
aVjenniferballing
p2361
aVPassw
p2362
aVwandp
p2363
aVnguyentruongtho
p2364
aVbakugo
p2365
aVBlackIkeEagle
p2366
aVmtford90
p2367
aVnashpitre
p2368
aVdavearonson
p2369
aVformula1
p2370
aVnnajm
p2371
aVsalrodgom
p2372
aVmapio
p2373
aVawamahiu
p2374
aVddjokic
p2375
aVevgenyneu
p2376
aVbishalg
p2377
aVuhumph
p2378
aVmarjinal1st
p2379
aVpsenger
p2380
aVelzj
p2381
aVgragusa
p2382
aVCrackerTeg
p2383
aVrosshamish
p2384
aVgsigler2
p2385
aVMrmaxmeier
p2386
aVDaveWoodCom
p2387
aVmwdchang
p2388
aVnkarimeddiny
p2389
aVmrocklin
p2390
aVYuichiroh
p2391
aVpeterkc
p2392
aVcsioza
p2393
aVSpaceman1701
p2394
aVTuckerWhitehouse
p2395
aVrvong
p2396
aVmrshickle
p2397
aVOdysimus
p2398
aVdol-sen
p2399
aVwxt2005
p2400
aVmagistrula
p2401
aVjosiah-wolf-oberholtzer
p2402
aVcrutchy-
p2403
aVcupcakemaster100
p2404
aVrustyswayne
p2405
aVAtvaark
p2406
aVmdoleh
p2407
aVambr0sia
p2408
aVDarex1991
p2409
aVhxxyyangyong
p2410
aVilovejs
p2411
aVadamatan
p2412
aVenochappathurai
p2413
aVKarlBao
p2414
aVstamourv
p2415
aVtamiko
p2416
aVnaiduv
p2417
aVSwimminschrage
p2418
aVamol-mandhane
p2419
aVvictoriasolomon
p2420
aVMGoyheneche
p2421
aVwinstonkim
p2422
aVethanharstad
p2423
aVNBallaney
p2424
aVk-maru
p2425
aVcarlos-soto
p2426
aVaruis
p2427
aVCsson
p2428
aVchrisvfritz
p2429
aVstandy
p2430
aVswiftcare
p2431
aVcaleb-eades
p2432
aVjaugustosaba
p2433
aVgamma235
p2434
aVjay
p2435
aVvaliknet18
p2436
aVanoved
p2437
aVEthanWelsh
p2438
aVjeff1818
p2439
aVVinhsterrr
p2440
aVaschreib
p2441
aVmstoppert
p2442
aVjohnotander
p2443
aVtgxworld
p2444
aVunarmed1618
p2445
aVelmatrak
p2446
aVJulius-V
p2447
aVsoftprops
p2448
aVmoiri
p2449
aVdaniel-trinh
p2450
aVxuhf
p2451
aVbuchireddy
p2452
aVflightx31
p2453
aVtvondra
p2454
aValnova
p2455
aVSardtok
p2456
aVericwelander
p2457
aVejoseca
p2458
aVdparpyani
p2459
aVAvery-Whitaker
p2460
aVbf4
p2461
aVpocketIlmatto
p2462
aVjgranick
p2463
aVPierreRochard
p2464
aVdjwong
p2465
aVghedamat
p2466
aVrevoltpuppy
p2467
aVshekenahglory
p2468
aVzachhuff386
p2469
aVszepeviktor
p2470
aVchylex
p2471
aVcarlyd95
p2472
aVrahulsambari
p2473
aVpaddelkraft
p2474
aVdocwhat
p2475
aVSkaceKamen
p2476
aVrichwalm
p2477
aVtargeter21
p2478
aVashinsel
p2479
aVkrico
p2480
aVthinca
p2481
aVTeamSpen210
p2482
aVCraZySacX
p2483
aVwolfg1969
p2484
aVPeterUpfold
p2485
aVmsobkow
p2486
aVakloster
p2487
aVpaulinus
p2488
aVismailakbudak
p2489
aVtimromanowski
p2490
aVsingstats
p2491
aVmwjames
p2492
aVbenchow
p2493
aVrandolph-osf
p2494
aVile
p2495
aVdatalurkur
p2496
aVhovida
p2497
aVgraydon
p2498
aVsimonhochrein
p2499
aVsammorris81
p2500
aVthor
p2501
aVrohanbhargava11
p2502
aVfredollinger
p2503
aVbitsol
p2504
aVsunyc
p2505
aVjmeyers314
p2506
aVwilliamtwilson
p2507
aVkwf
p2508
aVbhearsum
p2509
aVcaptainkirkby
p2510
aVKiaFathi
p2511
aVDiamondLovesYou
p2512
aVInternalError503
p2513
aVstefanberndtsson
p2514
aVjbleys
p2515
aVAPOPHIS9283
p2516
aVMakerScott
p2517
aVoduwa
p2518
aVterencezl
p2519
aVvbloise3
p2520
aVshubhamg31
p2521
aVfdr
p2522
aVtroystribling
p2523
aValbertchau
p2524
aVclarkbremer
p2525
aVchenxiaolong
p2526
aVjredden
p2527
aVgoodwordalchemy
p2528
aVkellyselden
p2529
aVAustinDizzy
p2530
aVessamjoubori
p2531
aVGlavin001
p2532
aVmglatz1
p2533
aVmasnes
p2534
aVmockenoff
p2535
aVwutongr
p2536
aVnamioka
p2537
aVphamductri
p2538
aVbrianyoungblood
p2539
aVsirkitree
p2540
aVMichaelDrogalis
p2541
aVsoniktrooth
p2542
aVelement15
p2543
aVsyssys123
p2544
aVNarno
p2545
aVrobertwb
p2546
aVuygunuks
p2547
aVfungilation
p2548
aVsimpri21
p2549
aVadityaatluri
p2550
aVmaurogs
p2551
aVdeannreid
p2552
aVHuarenYu
p2553
aVjoaoalf
p2554
aVsokrahta
p2555
aVFlyingPikachu
p2556
aVCynnar
p2557
aVmattmakesmaps
p2558
aVpicodotdev
p2559
aVemsifa
p2560
aVhakanb
p2561
aVjesselpalmer
p2562
aVshgtkshruch
p2563
aVmyleshorton
p2564
aVdorian-bar
p2565
aVsguan-actuate
p2566
aVjohnnykv
p2567
aVsoylent
p2568
aVDeamon5550
p2569
aVhimynameisdom
p2570
aVmiketahani
p2571
aVthomasmalbaux
p2572
aVyuvalbennaim
p2573
aVfyuw
p2574
aVwesleyalmeida
p2575
aVmikeferguson
p2576
aVmlom
p2577
aVctmanuel
p2578
aVsandals
p2579
aVdavidkarn
p2580
aVweijianzhang
p2581
aVmchen804
p2582
aVfelipebueno
p2583
aVdroentsch
p2584
aVsilverwind
p2585
aVMasterMind2k
p2586
aVtidjanycoin
p2587
aVmichaelficarra
p2588
aVcolerc2
p2589
aVShawnHansen
p2590
aVkevinhofmaenner
p2591
aVconstanthatz
p2592
aVschildbach
p2593
aVchasewoodford
p2594
aVkhaledkee
p2595
aVjacoyutorius
p2596
aVKenyStev
p2597
aVutricularian
p2598
aVmshahriarinia
p2599
aVrlb3
p2600
aVcircuits2
p2601
aVscentoni
p2602
aVpinaet
p2603
aVlukeis
p2604
aVloktar00
p2605
aVmattmorten
p2606
aVdmcclory
p2607
aVdrmyersii
p2608
aVmjukis
p2609
aVTheJeremail
p2610
aVadamstegman
p2611
aVBobris
p2612
aVrezaf
p2613
aVthewhodidthis
p2614
aVevanphx
p2615
aVAJ-Santos
p2616
aVmyplaceonline
p2617
aVchesko256
p2618
aVmicahjlucas
p2619
aVfivetanley
p2620
aVkarobar
p2621
aVspaw1
p2622
aVZaryafaraj
p2623
aVmntone
p2624
aVmjambon
p2625
aVageback
p2626
aVivanbrennan
p2627
aVjasonsutter
p2628
aVprodrummer5
p2629
aVgregburton
p2630
aVcwest
p2631
aVcengebretson
p2632
aVNDG802
p2633
aVChiel92
p2634
aVerjohnson
p2635
aVMcSherry
p2636
aVTheSean
p2637
aVXuefeng-Zhu
p2638
aVe-koch
p2639
aVNikhilSingh19
p2640
aVlucio-martinez
p2641
aVjrvliet
p2642
aVchamjinislro
p2643
aVlalalic
p2644
aVinemnitable
p2645
aVSirArkimedes
p2646
aVkafran
p2647
aVKalinovcic
p2648
aVlevonk
p2649
aVminhazul-haque
p2650
aVSoubkia
p2651
aVjakealbert
p2652
aVswannodette
p2653
aVbackbone
p2654
aVNicolas-Miranda
p2655
aVmarcioAlmada
p2656
aVinteractivellama
p2657
aVdenismartens
p2658
aVLewisPringle
p2659
aVandremleblanc
p2660
aVNoxivs
p2661
aVmonkeysSuck
p2662
aVPoolet
p2663
aVchaoxu1990
p2664
aVkylewm
p2665
aVdiervo
p2666
aVlownslow200sx
p2667
aVshk33
p2668
aVlucasmaiaesilva
p2669
aVcrahan
p2670
aVshimbara
p2671
aVLevelX2
p2672
aVInfocatcher
p2673
aVn-rodriguez
p2674
aVSantiCF
p2675
aVTheWolfJack
p2676
aVCaptainCow95
p2677
aVtristanjlang
p2678
aVozalvarez
p2679
aVderny
p2680
aVpaulecoyote
p2681
aVvedderb
p2682
aVjanaz
p2683
aVeugene-davis
p2684
aVmorgansegura
p2685
aVofficeroftheday
p2686
aVcosmic-cowboy
p2687
aVawilliamson
p2688
aVbwtian
p2689
aVpeebz
p2690
aVMacGyverr
p2691
aVjimlears
p2692
aVjaparic
p2693
aVthasmin
p2694
aVtnscorcoran
p2695
aVtripleplayj
p2696
aVmmoayyed
p2697
aVBinero
p2698
aVadamkao
p2699
aVoste
p2700
aVkaleb-himes
p2701
aVmdawsonibm
p2702
aVpetergeoghegan
p2703
aVipaq3115
p2704
aVradlws
p2705
aVleo-yuriev
p2706
aVnmilford
p2707
aVmikecarlson
p2708
aVGLolol
p2709
aVsteveperx
p2710
aVcm-gerrit
p2711
aVAkaiTsuki
p2712
aVjahvi
p2713
aVdtenenba
p2714
aVmiklevin
p2715
aVtotomz
p2716
aVabhshkdz
p2717
aVgladwearefriends
p2718
aVmapconcierge
p2719
aVbluebird88
p2720
aVtarekkazak
p2721
aVgugod
p2722
aVhdeplaen
p2723
aVsagivo
p2724
aVtheresaanna
p2725
aVernestoalejo
p2726
aVjangorecki
p2727
aVlmanzurv
p2728
aVXenoveritas
p2729
aVrbwestmoreland
p2730
aVjerson
p2731
aVLaneRendell
p2732
aVowsx
p2733
aVlinchristiands
p2734
aVrich-iannone
p2735
aVthnkloud9
p2736
aVbillperegoy
p2737
aValbertshau
p2738
aVcollingreen
p2739
aVnetworkant
p2740
aVnikejaycn
p2741
aVaudreywatters
p2742
aVymarcus93
p2743
aVpascalopitz
p2744
aVstef145g
p2745
aVsherbo
p2746
aVjtByt-Pictures
p2747
aVlunny
p2748
aVRalt
p2749
aVsazid1462
p2750
aVOlegKi
p2751
aVnmccready
p2752
aVsheki
p2753
aVstyro103
p2754
aVpiwik-auto-commit-bot
p2755
aVbearishtrader
p2756
aVjadonk
p2757
aVJeroenDeDauw
p2758
aVmarcellodibello
p2759
aVran-z
p2760
aVBilelNoomene
p2761
aVoguzbilgener
p2762
aVmjgiarlo
p2763
aVliamseanbrady
p2764
aV6d7367
p2765
aVd3stats
p2766
aVckuzma
p2767
aVdvdprr6
p2768
aVademir10
p2769
aVfinbarr
p2770
aVgrydstedt
p2771
aVenriquefariasrdz
p2772
aVbaerrus
p2773
aVgkovacs
p2774
aVeswordthecat
p2775
aVhazolsky
p2776
aVimduffy15
p2777
aVsiefca
p2778
a.